                             //
                             // CODE_0 
                             // ram:1000:0000-ram:1000:044f
                             //
                             **************************************************************
                             *                          FUNCTION                          *
                             **************************************************************
                             undefined entry()
                               assume CS = 0x1000
                               assume SP = 0xb8
                               assume SS = 0x1000
             undefined         AL:1           <RETURN>
                             entry                                           XREF[1]:     Entry Point(*)  
       1000:0000 0e              PUSH       CS=>LAB_1000_00b5+1
             assume SS = <UNKNOWN>
             assume SP = <UNKNOWN>
       1000:0001 1f              POP        DS=>LAB_1000_00b5+1
       1000:0002 ba 0e 00        MOV        DX,0xe
       1000:0005 b4 09           MOV        AH,0x9
       1000:0007 cd 21           INT        0x21
       1000:0009 b8 01 4c        MOV        AX,0x4c01
       1000:000c cd 21           INT        0x21
       1000:000e 54              PUSH       SP
       1000:000f 68 69 73        PUSH       0x7369
       1000:0012 20 70 72        AND        byte ptr [BX + SI + 0x72],DH
       1000:0015 6f              OUTSW      DX,SI
       1000:0016 67 72 61        JC         LAB_1000_007a
       1000:0019 6d              INSW       ES:DI,DX
       1000:001a 20 63 61        AND        byte ptr [BP + DI + 0x61],AH
       1000:001d 6e              OUTSB      DX,SI
       1000:001e 6e              OUTSB      DX,SI
       1000:001f 6f              OUTSW      DX,SI
       1000:0020 74 20           JZ         LAB_1000_0040+2
       1000:0022 62 65 20        BOUND      SP,word ptr [DI + 0x20]
       1000:0025 72 75           JC         LAB_1000_009b+1
       1000:0027 6e              OUTSB      DX,SI
       1000:0028 20 69 6e        AND        byte ptr [BX + DI + 0x6e],CH
       1000:002b 20 44 4f        AND        byte ptr [SI + 0x4f],AL
       1000:002e 53              PUSH       BX
       1000:002f 20 6d 6f        AND        byte ptr [DI + 0x6f],CH
       1000:0032 64 65 2e        OR         AX,0xa0d
                 0d 0d 0a
       1000:0038 24 00           AND        AL,0x0
       1000:003a 00 00           ADD        byte ptr [BX + SI],AL
       1000:003c 00 00           ADD        byte ptr [BX + SI],AL
       1000:003e 00 00           ADD        byte ptr [BX + SI],AL
                             LAB_1000_0040+2                                 XREF[0,1]:   1000:0020(j)  
       1000:0040 b9 27 38        MOV        CX,0x3827
       1000:0043 bf fd 46        MOV        DI,0x46fd
       1000:0046 56              PUSH       SI
       1000:0047 ec              IN         AL,DX
       1000:0048 fd              STD
       1000:0049 46              INC        SI
       1000:004a 56              PUSH       SI
       1000:004b ec              IN         AL,DX
       1000:004c fd              STD
       1000:004d 46              INC        SI
       1000:004e 56              PUSH       SI
       1000:004f ec              IN         AL,DX
       1000:0050 fd              STD
       1000:0051 46              INC        SI
       1000:0052 57              PUSH       DI
       1000:0053 ec              IN         AL,DX
       1000:0054 87 46 56        XCHG       word ptr [BP + 0x56],AX
       1000:0057 ec              IN         AL,DX
       1000:0058 25 59 45        AND        AX,0x4559
       1000:005b ec              IN         AL,DX
       1000:005c f0              ??         F0h
       1000:005d 46              ??         46h    F
       1000:005e 56              ??         56h    V
       1000:005f ec              ??         ECh
       1000:0060 90              ??         90h
       1000:0061 41              ??         41h    A
       1000:0062 50              ??         50h    P
       1000:0063 ec              ??         ECh
       1000:0064 fc              ??         FCh
       1000:0065 46              ??         46h    F
       1000:0066 56              ??         56h    V
       1000:0067 ec              ??         ECh
       1000:0068 fd              ??         FDh
       1000:0069 46              ??         46h    F
       1000:006a 56              ??         56h    V
       1000:006b ec              ??         ECh
       1000:006c e7              ??         E7h
       1000:006d 46              ??         46h    F
       1000:006e 56              ??         56h    V
       1000:006f ec              ??         ECh
       1000:0070 52              ??         52h    R
       1000:0071 69              ??         69h    i
       1000:0072 63              ??         63h    c
       1000:0073 68              ??         68h    h
       1000:0074 fd              ??         FDh
       1000:0075 46              ??         46h    F
       1000:0076 56              ??         56h    V
       1000:0077 ec              ??         ECh
       1000:0078 00              ??         00h
       1000:0079 00              ??         00h
                             LAB_1000_007a                                   XREF[1]:     1000:0016(j)  
       1000:007a 00 00           ADD        byte ptr [BX + SI],AL
       1000:007c 00 00           ADD        byte ptr [BX + SI],AL
       1000:007e 00 00           ADD        byte ptr [BX + SI],AL
       1000:0080 00 00           ADD        byte ptr [BX + SI],AL
       1000:0082 00 00           ADD        byte ptr [BX + SI],AL
       1000:0084 00 00           ADD        byte ptr [BX + SI],AL
       1000:0086 00 00           ADD        byte ptr [BX + SI],AL
       1000:0088 00 00           ADD        byte ptr [BX + SI],AL
       1000:008a 00 00           ADD        byte ptr [BX + SI],AL
       1000:008c 00 00           ADD        byte ptr [BX + SI],AL
       1000:008e 00 00           ADD        byte ptr [BX + SI],AL
       1000:0090 50              PUSH       AX
       1000:0091 45              INC        BP
       1000:0092 00 00           ADD        byte ptr [BX + SI],AL
       1000:0094 4c              DEC        SP
       1000:0095 01 03           ADD        word ptr [BP + DI],AX
       1000:0097 00 ac c5 18     ADD        byte ptr [SI + 0x18c5],CH
                             LAB_1000_009b+1                                 XREF[0,1]:   1000:0025(j)  
       1000:009b 36 00 00        ADD        byte ptr SS:[BX + SI],AL
       1000:009e 00 00           ADD        byte ptr [BX + SI],AL
       1000:00a0 2f              DAS
       1000:00a1 03 00           ADD        AX,word ptr [BX + SI]
       1000:00a3 00 e0           ADD        AL,AH
       1000:00a5 00 07           ADD        byte ptr [BX],AL
       1000:00a7 03 0b           ADD        CX,word ptr [BP + DI]
       1000:00a9 01 05           ADD        word ptr [DI],AX
       1000:00ab 0c 00           OR         AL,0x0
       1000:00ad 90              NOP
       1000:00ae 00 00           ADD        byte ptr [BX + SI],AL
       1000:00b0 00 60 16        ADD        byte ptr [BX + SI + 0x16],AH
       1000:00b3 00 00           ADD        byte ptr [BX + SI],AL
                             LAB_1000_00b5+1                                 XREF[0,2]:   1000:0000(W), 1000:0001(R)  
       1000:00b5 00 00           ADD        byte ptr [BX + SI],AL
       1000:00b7 00 3d           ADD        byte ptr [DI],BH
       1000:00b9 27              DAA
       1000:00ba 00 00           ADD        byte ptr [BX + SI],AL
       1000:00bc 00 10           ADD        byte ptr [BX + SI],DL
       1000:00be 00 00           ADD        byte ptr [BX + SI],AL
       1000:00c0 00 a0 00 00     ADD        byte ptr [BX + SI + 0x0],AH
       1000:00c4 00 00           ADD        byte ptr [BX + SI],AL
       1000:00c6 00 01           ADD        byte ptr [BX + DI],AL
       1000:00c8 00 10           ADD        byte ptr [BX + SI],DL
       1000:00ca 00 00           ADD        byte ptr [BX + SI],AL
       1000:00cc 00 02           ADD        byte ptr [BP + SI],AL
       1000:00ce 00 00           ADD        byte ptr [BX + SI],AL
       1000:00d0 05 00 00        ADD        AX,0x0
       1000:00d3 00 05           ADD        byte ptr [DI],AL
       1000:00d5 00 00           ADD        byte ptr [BX + SI],AL
       1000:00d7 00 04           ADD        byte ptr [SI],AL
       1000:00d9 00 00           ADD        byte ptr [BX + SI],AL
       1000:00db 00 00           ADD        byte ptr [BX + SI],AL
       1000:00dd 00 00           ADD        byte ptr [BX + SI],AL
       1000:00df 00 00           ADD        byte ptr [BX + SI],AL
       1000:00e1 20 17           AND        byte ptr [BX],DL
       1000:00e3 00 00           ADD        byte ptr [BX + SI],AL
       1000:00e5 06              PUSH       ES
       1000:00e6 00 00           ADD        byte ptr [BX + SI],AL
       1000:00e8 91              XCHG       AX,CX
       1000:00e9 9d              POPF
       1000:00ea 17              POP        SS
       1000:00eb 00 02           ADD        byte ptr [BP + SI],AL
       1000:00ed 00 00           ADD        byte ptr [BX + SI],AL
       1000:00ef 00 00           ADD        byte ptr [BX + SI],AL
       1000:00f1 00 04           ADD        byte ptr [SI],AL
       1000:00f3 00 00           ADD        byte ptr [BX + SI],AL
       1000:00f5 10 00           ADC        byte ptr [BX + SI],AL
       1000:00f7 00 00           ADD        byte ptr [BX + SI],AL
       1000:00f9 00 10           ADD        byte ptr [BX + SI],DL
       1000:00fb 00 00           ADD        byte ptr [BX + SI],AL
       1000:00fd 10 00           ADC        byte ptr [BX + SI],AL
       1000:00ff 00 00           ADD        byte ptr [BX + SI],AL
       1000:0101 00 00           ADD        byte ptr [BX + SI],AL
       1000:0103 00 10           ADD        byte ptr [BX + SI],DL
       1000:0105 00 00           ADD        byte ptr [BX + SI],AL
       1000:0107 00 00           ADD        byte ptr [BX + SI],AL
       1000:0109 00 00           ADD        byte ptr [BX + SI],AL
       1000:010b 00 00           ADD        byte ptr [BX + SI],AL
       1000:010d 00 00           ADD        byte ptr [BX + SI],AL
       1000:010f 00 74 94        ADD        byte ptr [SI + -0x6c],DH
       1000:0112 00 00           ADD        byte ptr [BX + SI],AL
       1000:0114 8c 00           MOV        word ptr [BX + SI],ES
       1000:0116 00 00           ADD        byte ptr [BX + SI],AL
       1000:0118 00 c0           ADD        AL,AL
       1000:011a 00 00           ADD        byte ptr [BX + SI],AL
       1000:011c 68 5a 16        PUSH       0x165a
       1000:011f 00 00           ADD        byte ptr [BX + SI],AL
       1000:0121 00 00           ADD        byte ptr [BX + SI],AL
       1000:0123 00 00           ADD        byte ptr [BX + SI],AL
       1000:0125 00 00           ADD        byte ptr [BX + SI],AL
       1000:0127 00 00           ADD        byte ptr [BX + SI],AL
       1000:0129 01 17           ADD        word ptr [BX],DX
       1000:012b 00 a0 15 00     ADD        byte ptr [BX + SI + 0x15],AH
       1000:012f 00 00           ADD        byte ptr [BX + SI],AL
       1000:0131 00 00           ADD        byte ptr [BX + SI],AL
       1000:0133 00 00           ADD        byte ptr [BX + SI],AL
       1000:0135 00 00           ADD        byte ptr [BX + SI],AL
       1000:0137 00 00           ADD        byte ptr [BX + SI],AL
       1000:0139 12 00           ADC        AL,byte ptr [BX + SI]
       1000:013b 00 38           ADD        byte ptr [BX + SI],BH
       1000:013d 00 00           ADD        byte ptr [BX + SI],AL
       1000:013f 00 00           ADD        byte ptr [BX + SI],AL
       1000:0141 00 00           ADD        byte ptr [BX + SI],AL
       1000:0143 00 00           ADD        byte ptr [BX + SI],AL
       1000:0145 00 00           ADD        byte ptr [BX + SI],AL
       1000:0147 00 00           ADD        byte ptr [BX + SI],AL
       1000:0149 00 00           ADD        byte ptr [BX + SI],AL
       1000:014b 00 00           ADD        byte ptr [BX + SI],AL
       1000:014d 00 00           ADD        byte ptr [BX + SI],AL
       1000:014f 00 00           ADD        byte ptr [BX + SI],AL
       1000:0151 00 00           ADD        byte ptr [BX + SI],AL
       1000:0153 00 00           ADD        byte ptr [BX + SI],AL
       1000:0155 00 00           ADD        byte ptr [BX + SI],AL
       1000:0157 00 00           ADD        byte ptr [BX + SI],AL
       1000:0159 00 00           ADD        byte ptr [BX + SI],AL
       1000:015b 00 00           ADD        byte ptr [BX + SI],AL
       1000:015d 00 00           ADD        byte ptr [BX + SI],AL
       1000:015f 00              ??         00h
       1000:0160 00              ??         00h
       1000:0161 00              ??         00h
       1000:0162 00              ??         00h
       1000:0163 00              ??         00h
       1000:0164 00              ??         00h
       1000:0165 00              ??         00h
       1000:0166 00              ??         00h
       1000:0167 00              ??         00h
       1000:0168 00              ??         00h
       1000:0169 10              ??         10h
       1000:016a 00              ??         00h
       1000:016b 00              ??         00h
       1000:016c 00              ??         00h
       1000:016d 02              ??         02h
       1000:016e 00              ??         00h
       1000:016f 00              ??         00h
       1000:0170 00              ??         00h
       1000:0171 00              ??         00h
       1000:0172 00              ??         00h
       1000:0173 00              ??         00h
       1000:0174 00              ??         00h
       1000:0175 00              ??         00h
       1000:0176 00              ??         00h
       1000:0177 00              ??         00h
       1000:0178 00              ??         00h
       1000:0179 00              ??         00h
       1000:017a 00              ??         00h
       1000:017b 00              ??         00h
       1000:017c 00              ??         00h
       1000:017d 00              ??         00h
       1000:017e 00              ??         00h
       1000:017f 00              ??         00h
       1000:0180 00              ??         00h
       1000:0181 00              ??         00h
       1000:0182 00              ??         00h
       1000:0183 00              ??         00h
       1000:0184 00              ??         00h
       1000:0185 00              ??         00h
       1000:0186 00              ??         00h
       1000:0187 00              ??         00h
       1000:0188 2e              ??         2Eh    .
       1000:0189 74              ??         74h    t
       1000:018a 65              ??         65h    e
       1000:018b 78              ??         78h    x
       1000:018c 74              ??         74h    t
       1000:018d 00              ??         00h
       1000:018e 00              ??         00h
       1000:018f 00              ??         00h
       1000:0190 66              ??         66h    f
       1000:0191 8f              ??         8Fh
       1000:0192 00              ??         00h
       1000:0193 00              ??         00h
       1000:0194 00              ??         00h
       1000:0195 10              ??         10h
       1000:0196 00              ??         00h
       1000:0197 00              ??         00h
       1000:0198 00              ??         00h
       1000:0199 90              ??         90h
       1000:019a 00              ??         00h
       1000:019b 00              ??         00h
       1000:019c 00              ??         00h
       1000:019d 06              ??         06h
       1000:019e 00              ??         00h
       1000:019f 00              ??         00h
       1000:01a0 00              ??         00h
       1000:01a1 00              ??         00h
       1000:01a2 00              ??         00h
       1000:01a3 00              ??         00h
       1000:01a4 00              ??         00h
       1000:01a5 00              ??         00h
       1000:01a6 00              ??         00h
       1000:01a7 00              ??         00h
       1000:01a8 00              ??         00h
       1000:01a9 00              ??         00h
       1000:01aa 00              ??         00h
       1000:01ab 00              ??         00h
       1000:01ac 20              ??         20h     
       1000:01ad 00              ??         00h
       1000:01ae 00              ??         00h
       1000:01af 60              ??         60h    `
       1000:01b0 2e              ??         2Eh    .
       1000:01b1 64              ??         64h    d
       1000:01b2 61              ??         61h    a
       1000:01b3 74              ??         74h    t
       1000:01b4 61              ??         61h    a
       1000:01b5 00              ??         00h
       1000:01b6 00              ??         00h
       1000:01b7 00              ??         00h
       1000:01b8 0c              ??         0Ch
       1000:01b9 1c              ??         1Ch
       1000:01ba 00              ??         00h
       1000:01bb 00              ??         00h
       1000:01bc 00              ??         00h
       1000:01bd a0              ??         A0h
       1000:01be 00              ??         00h
       1000:01bf 00              ??         00h
       1000:01c0 00              ??         00h
       1000:01c1 04              ??         04h
       1000:01c2 00              ??         00h
       1000:01c3 00              ??         00h
       1000:01c4 00              ??         00h
       1000:01c5 96              ??         96h
       1000:01c6 00              ??         00h
       1000:01c7 00              ??         00h
       1000:01c8 00              ??         00h
       1000:01c9 00              ??         00h
       1000:01ca 00              ??         00h
       1000:01cb 00              ??         00h
       1000:01cc 00              ??         00h
       1000:01cd 00              ??         00h
       1000:01ce 00              ??         00h
       1000:01cf 00              ??         00h
       1000:01d0 00              ??         00h
       1000:01d1 00              ??         00h
       1000:01d2 00              ??         00h
       1000:01d3 00              ??         00h
       1000:01d4 40              ??         40h    @
       1000:01d5 00              ??         00h
       1000:01d6 00              ??         00h
       1000:01d7 c0              ??         C0h
       1000:01d8 2e              ??         2Eh    .
       1000:01d9 72              ??         72h    r
       1000:01da 73              ??         73h    s
       1000:01db 72              ??         72h    r
       1000:01dc 63              ??         63h    c
       1000:01dd 00              ??         00h
       1000:01de 00              ??         00h
       1000:01df 00              ??         00h
       1000:01e0 00              ??         00h
       1000:01e1 60              ??         60h    `
       1000:01e2 16              ??         16h
       1000:01e3 00              ??         00h
       1000:01e4 00              ??         00h
       1000:01e5 c0              ??         C0h
       1000:01e6 00              ??         00h
       1000:01e7 00              ??         00h
       1000:01e8 00              ??         00h
       1000:01e9 5c              ??         5Ch    \
       1000:01ea 16              ??         16h
       1000:01eb 00              ??         00h
       1000:01ec 00              ??         00h
       1000:01ed 9a              ??         9Ah
       1000:01ee 00              ??         00h
       1000:01ef 00              ??         00h
       1000:01f0 00              ??         00h
       1000:01f1 00              ??         00h
       1000:01f2 00              ??         00h
       1000:01f3 00              ??         00h
       1000:01f4 00              ??         00h
       1000:01f5 00              ??         00h
       1000:01f6 00              ??         00h
       1000:01f7 00              ??         00h
       1000:01f8 00              ??         00h
       1000:01f9 00              ??         00h
       1000:01fa 00              ??         00h
       1000:01fb 00              ??         00h
       1000:01fc 40              ??         40h    @
       1000:01fd 00              ??         00h
       1000:01fe 00              ??         00h
       1000:01ff 40              ??         40h    @
       1000:0200 00              ??         00h
       1000:0201 00              ??         00h
       1000:0202 00              ??         00h
       1000:0203 00              ??         00h
       1000:0204 00              ??         00h
       1000:0205 00              ??         00h
       1000:0206 00              ??         00h
       1000:0207 00              ??         00h
       1000:0208 00              ??         00h
       1000:0209 00              ??         00h
       1000:020a 00              ??         00h
       1000:020b 00              ??         00h
       1000:020c 00              ??         00h
       1000:020d 00              ??         00h
       1000:020e 00              ??         00h
       1000:020f 00              ??         00h
       1000:0210 00              ??         00h
       1000:0211 00              ??         00h
       1000:0212 00              ??         00h
       1000:0213 00              ??         00h
       1000:0214 00              ??         00h
       1000:0215 00              ??         00h
       1000:0216 00              ??         00h
       1000:0217 00              ??         00h
       1000:0218 00              ??         00h
       1000:0219 00              ??         00h
       1000:021a 00              ??         00h
       1000:021b 00              ??         00h
       1000:021c 00              ??         00h
       1000:021d 00              ??         00h
       1000:021e 00              ??         00h
       1000:021f 00              ??         00h
       1000:0220 00              ??         00h
       1000:0221 00              ??         00h
       1000:0222 00              ??         00h
       1000:0223 00              ??         00h
       1000:0224 00              ??         00h
       1000:0225 00              ??         00h
       1000:0226 00              ??         00h
       1000:0227 00              ??         00h
       1000:0228 00              ??         00h
       1000:0229 00              ??         00h
       1000:022a 00              ??         00h
       1000:022b 00              ??         00h
       1000:022c 00              ??         00h
       1000:022d 00              ??         00h
       1000:022e 00              ??         00h
       1000:022f 00              ??         00h
       1000:0230 00              ??         00h
       1000:0231 00              ??         00h
       1000:0232 00              ??         00h
       1000:0233 00              ??         00h
       1000:0234 00              ??         00h
       1000:0235 00              ??         00h
       1000:0236 00              ??         00h
       1000:0237 00              ??         00h
       1000:0238 00              ??         00h
       1000:0239 00              ??         00h
       1000:023a 00              ??         00h
       1000:023b 00              ??         00h
       1000:023c 00              ??         00h
       1000:023d 00              ??         00h
       1000:023e 00              ??         00h
       1000:023f 00              ??         00h
       1000:0240 00              ??         00h
       1000:0241 00              ??         00h
       1000:0242 00              ??         00h
       1000:0243 00              ??         00h
       1000:0244 00              ??         00h
       1000:0245 00              ??         00h
       1000:0246 00              ??         00h
       1000:0247 00              ??         00h
       1000:0248 00              ??         00h
       1000:0249 00              ??         00h
       1000:024a 00              ??         00h
       1000:024b 00              ??         00h
       1000:024c 00              ??         00h
       1000:024d 00              ??         00h
       1000:024e 00              ??         00h
       1000:024f 00              ??         00h
       1000:0250 00              ??         00h
       1000:0251 00              ??         00h
       1000:0252 00              ??         00h
       1000:0253 00              ??         00h
       1000:0254 00              ??         00h
       1000:0255 00              ??         00h
       1000:0256 00              ??         00h
       1000:0257 00              ??         00h
       1000:0258 00              ??         00h
       1000:0259 00              ??         00h
       1000:025a 00              ??         00h
       1000:025b 00              ??         00h
       1000:025c 00              ??         00h
       1000:025d 00              ??         00h
       1000:025e 00              ??         00h
       1000:025f 00              ??         00h
       1000:0260 00              ??         00h
       1000:0261 00              ??         00h
       1000:0262 00              ??         00h
       1000:0263 00              ??         00h
       1000:0264 00              ??         00h
       1000:0265 00              ??         00h
       1000:0266 00              ??         00h
       1000:0267 00              ??         00h
       1000:0268 00              ??         00h
       1000:0269 00              ??         00h
       1000:026a 00              ??         00h
       1000:026b 00              ??         00h
       1000:026c 00              ??         00h
       1000:026d 00              ??         00h
       1000:026e 00              ??         00h
       1000:026f 00              ??         00h
       1000:0270 00              ??         00h
       1000:0271 00              ??         00h
       1000:0272 00              ??         00h
       1000:0273 00              ??         00h
       1000:0274 00              ??         00h
       1000:0275 00              ??         00h
       1000:0276 00              ??         00h
       1000:0277 00              ??         00h
       1000:0278 00              ??         00h
       1000:0279 00              ??         00h
       1000:027a 00              ??         00h
       1000:027b 00              ??         00h
       1000:027c 00              ??         00h
       1000:027d 00              ??         00h
       1000:027e 00              ??         00h
       1000:027f 00              ??         00h
       1000:0280 00              ??         00h
       1000:0281 00              ??         00h
       1000:0282 00              ??         00h
       1000:0283 00              ??         00h
       1000:0284 00              ??         00h
       1000:0285 00              ??         00h
       1000:0286 00              ??         00h
       1000:0287 00              ??         00h
       1000:0288 00              ??         00h
       1000:0289 00              ??         00h
       1000:028a 00              ??         00h
       1000:028b 00              ??         00h
       1000:028c 00              ??         00h
       1000:028d 00              ??         00h
       1000:028e 00              ??         00h
       1000:028f 00              ??         00h
       1000:0290 00              ??         00h
       1000:0291 00              ??         00h
       1000:0292 00              ??         00h
       1000:0293 00              ??         00h
       1000:0294 00              ??         00h
       1000:0295 00              ??         00h
       1000:0296 00              ??         00h
       1000:0297 00              ??         00h
       1000:0298 00              ??         00h
       1000:0299 00              ??         00h
       1000:029a 00              ??         00h
       1000:029b 00              ??         00h
       1000:029c 00              ??         00h
       1000:029d 00              ??         00h
       1000:029e 00              ??         00h
       1000:029f 00              ??         00h
       1000:02a0 00              ??         00h
       1000:02a1 00              ??         00h
       1000:02a2 00              ??         00h
       1000:02a3 00              ??         00h
       1000:02a4 00              ??         00h
       1000:02a5 00              ??         00h
       1000:02a6 00              ??         00h
       1000:02a7 00              ??         00h
       1000:02a8 00              ??         00h
       1000:02a9 00              ??         00h
       1000:02aa 00              ??         00h
       1000:02ab 00              ??         00h
       1000:02ac 00              ??         00h
       1000:02ad 00              ??         00h
       1000:02ae 00              ??         00h
       1000:02af 00              ??         00h
       1000:02b0 00              ??         00h
       1000:02b1 00              ??         00h
       1000:02b2 00              ??         00h
       1000:02b3 00              ??         00h
       1000:02b4 00              ??         00h
       1000:02b5 00              ??         00h
       1000:02b6 00              ??         00h
       1000:02b7 00              ??         00h
       1000:02b8 00              ??         00h
       1000:02b9 00              ??         00h
       1000:02ba 00              ??         00h
       1000:02bb 00              ??         00h
       1000:02bc 00              ??         00h
       1000:02bd 00              ??         00h
       1000:02be 00              ??         00h
       1000:02bf 00              ??         00h
       1000:02c0 00              ??         00h
       1000:02c1 00              ??         00h
       1000:02c2 00              ??         00h
       1000:02c3 00              ??         00h
       1000:02c4 00              ??         00h
       1000:02c5 00              ??         00h
       1000:02c6 00              ??         00h
       1000:02c7 00              ??         00h
       1000:02c8 00              ??         00h
       1000:02c9 00              ??         00h
       1000:02ca 00              ??         00h
       1000:02cb 00              ??         00h
       1000:02cc 00              ??         00h
       1000:02cd 00              ??         00h
       1000:02ce 00              ??         00h
       1000:02cf 00              ??         00h
       1000:02d0 00              ??         00h
       1000:02d1 00              ??         00h
       1000:02d2 00              ??         00h
       1000:02d3 00              ??         00h
       1000:02d4 00              ??         00h
       1000:02d5 00              ??         00h
       1000:02d6 00              ??         00h
       1000:02d7 00              ??         00h
       1000:02d8 00              ??         00h
       1000:02d9 00              ??         00h
       1000:02da 00              ??         00h
       1000:02db 00              ??         00h
       1000:02dc 00              ??         00h
       1000:02dd 00              ??         00h
       1000:02de 00              ??         00h
       1000:02df 00              ??         00h
       1000:02e0 00              ??         00h
       1000:02e1 00              ??         00h
       1000:02e2 00              ??         00h
       1000:02e3 00              ??         00h
       1000:02e4 00              ??         00h
       1000:02e5 00              ??         00h
       1000:02e6 00              ??         00h
       1000:02e7 00              ??         00h
       1000:02e8 00              ??         00h
       1000:02e9 00              ??         00h
       1000:02ea 00              ??         00h
       1000:02eb 00              ??         00h
       1000:02ec 00              ??         00h
       1000:02ed 00              ??         00h
       1000:02ee 00              ??         00h
       1000:02ef 00              ??         00h
       1000:02f0 00              ??         00h
       1000:02f1 00              ??         00h
       1000:02f2 00              ??         00h
       1000:02f3 00              ??         00h
       1000:02f4 00              ??         00h
       1000:02f5 00              ??         00h
       1000:02f6 00              ??         00h
       1000:02f7 00              ??         00h
       1000:02f8 00              ??         00h
       1000:02f9 00              ??         00h
       1000:02fa 00              ??         00h
       1000:02fb 00              ??         00h
       1000:02fc 00              ??         00h
       1000:02fd 00              ??         00h
       1000:02fe 00              ??         00h
       1000:02ff 00              ??         00h
       1000:0300 00              ??         00h
       1000:0301 00              ??         00h
       1000:0302 00              ??         00h
       1000:0303 00              ??         00h
       1000:0304 00              ??         00h
       1000:0305 00              ??         00h
       1000:0306 00              ??         00h
       1000:0307 00              ??         00h
       1000:0308 00              ??         00h
       1000:0309 00              ??         00h
       1000:030a 00              ??         00h
       1000:030b 00              ??         00h
       1000:030c 00              ??         00h
       1000:030d 00              ??         00h
       1000:030e 00              ??         00h
       1000:030f 00              ??         00h
       1000:0310 00              ??         00h
       1000:0311 00              ??         00h
       1000:0312 00              ??         00h
       1000:0313 00              ??         00h
       1000:0314 00              ??         00h
       1000:0315 00              ??         00h
       1000:0316 00              ??         00h
       1000:0317 00              ??         00h
       1000:0318 00              ??         00h
       1000:0319 00              ??         00h
       1000:031a 00              ??         00h
       1000:031b 00              ??         00h
       1000:031c 00              ??         00h
       1000:031d 00              ??         00h
       1000:031e 00              ??         00h
       1000:031f 00              ??         00h
       1000:0320 00              ??         00h
       1000:0321 00              ??         00h
       1000:0322 00              ??         00h
       1000:0323 00              ??         00h
       1000:0324 00              ??         00h
       1000:0325 00              ??         00h
       1000:0326 00              ??         00h
       1000:0327 00              ??         00h
       1000:0328 00              ??         00h
       1000:0329 00              ??         00h
       1000:032a 00              ??         00h
       1000:032b 00              ??         00h
       1000:032c 00              ??         00h
       1000:032d 00              ??         00h
       1000:032e 00              ??         00h
       1000:032f 00              ??         00h
       1000:0330 00              ??         00h
       1000:0331 00              ??         00h
       1000:0332 00              ??         00h
       1000:0333 00              ??         00h
       1000:0334 00              ??         00h
       1000:0335 00              ??         00h
       1000:0336 00              ??         00h
       1000:0337 00              ??         00h
       1000:0338 00              ??         00h
       1000:0339 00              ??         00h
       1000:033a 00              ??         00h
       1000:033b 00              ??         00h
       1000:033c 00              ??         00h
       1000:033d 00              ??         00h
       1000:033e 00              ??         00h
       1000:033f 00              ??         00h
       1000:0340 00              ??         00h
       1000:0341 00              ??         00h
       1000:0342 00              ??         00h
       1000:0343 00              ??         00h
       1000:0344 00              ??         00h
       1000:0345 00              ??         00h
       1000:0346 00              ??         00h
       1000:0347 00              ??         00h
       1000:0348 00              ??         00h
       1000:0349 00              ??         00h
       1000:034a 00              ??         00h
       1000:034b 00              ??         00h
       1000:034c 00              ??         00h
       1000:034d 00              ??         00h
       1000:034e 00              ??         00h
       1000:034f 00              ??         00h
       1000:0350 00              ??         00h
       1000:0351 00              ??         00h
       1000:0352 00              ??         00h
       1000:0353 00              ??         00h
       1000:0354 00              ??         00h
       1000:0355 00              ??         00h
       1000:0356 00              ??         00h
       1000:0357 00              ??         00h
       1000:0358 00              ??         00h
       1000:0359 00              ??         00h
       1000:035a 00              ??         00h
       1000:035b 00              ??         00h
       1000:035c 00              ??         00h
       1000:035d 00              ??         00h
       1000:035e 00              ??         00h
       1000:035f 00              ??         00h
       1000:0360 00              ??         00h
       1000:0361 00              ??         00h
       1000:0362 00              ??         00h
       1000:0363 00              ??         00h
       1000:0364 00              ??         00h
       1000:0365 00              ??         00h
       1000:0366 00              ??         00h
       1000:0367 00              ??         00h
       1000:0368 00              ??         00h
       1000:0369 00              ??         00h
       1000:036a 00              ??         00h
       1000:036b 00              ??         00h
       1000:036c 00              ??         00h
       1000:036d 00              ??         00h
       1000:036e 00              ??         00h
       1000:036f 00              ??         00h
       1000:0370 00              ??         00h
       1000:0371 00              ??         00h
       1000:0372 00              ??         00h
       1000:0373 00              ??         00h
       1000:0374 00              ??         00h
       1000:0375 00              ??         00h
       1000:0376 00              ??         00h
       1000:0377 00              ??         00h
       1000:0378 00              ??         00h
       1000:0379 00              ??         00h
       1000:037a 00              ??         00h
       1000:037b 00              ??         00h
       1000:037c 00              ??         00h
       1000:037d 00              ??         00h
       1000:037e 00              ??         00h
       1000:037f 00              ??         00h
       1000:0380 00              ??         00h
       1000:0381 00              ??         00h
       1000:0382 00              ??         00h
       1000:0383 00              ??         00h
       1000:0384 00              ??         00h
       1000:0385 00              ??         00h
       1000:0386 00              ??         00h
       1000:0387 00              ??         00h
       1000:0388 00              ??         00h
       1000:0389 00              ??         00h
       1000:038a 00              ??         00h
       1000:038b 00              ??         00h
       1000:038c 00              ??         00h
       1000:038d 00              ??         00h
       1000:038e 00              ??         00h
       1000:038f 00              ??         00h
       1000:0390 00              ??         00h
       1000:0391 00              ??         00h
       1000:0392 00              ??         00h
       1000:0393 00              ??         00h
       1000:0394 00              ??         00h
       1000:0395 00              ??         00h
       1000:0396 00              ??         00h
       1000:0397 00              ??         00h
       1000:0398 00              ??         00h
       1000:0399 00              ??         00h
       1000:039a 00              ??         00h
       1000:039b 00              ??         00h
       1000:039c 00              ??         00h
       1000:039d 00              ??         00h
       1000:039e 00              ??         00h
       1000:039f 00              ??         00h
       1000:03a0 00              ??         00h
       1000:03a1 00              ??         00h
       1000:03a2 00              ??         00h
       1000:03a3 00              ??         00h
       1000:03a4 00              ??         00h
       1000:03a5 00              ??         00h
       1000:03a6 00              ??         00h
       1000:03a7 00              ??         00h
       1000:03a8 00              ??         00h
       1000:03a9 00              ??         00h
       1000:03aa 00              ??         00h
       1000:03ab 00              ??         00h
       1000:03ac 00              ??         00h
       1000:03ad 00              ??         00h
       1000:03ae 00              ??         00h
       1000:03af 00              ??         00h
       1000:03b0 00              ??         00h
       1000:03b1 00              ??         00h
       1000:03b2 00              ??         00h
       1000:03b3 00              ??         00h
       1000:03b4 00              ??         00h
       1000:03b5 00              ??         00h
       1000:03b6 00              ??         00h
       1000:03b7 00              ??         00h
       1000:03b8 00              ??         00h
       1000:03b9 00              ??         00h
       1000:03ba 00              ??         00h
       1000:03bb 00              ??         00h
       1000:03bc 00              ??         00h
       1000:03bd 00              ??         00h
       1000:03be 00              ??         00h
       1000:03bf 00              ??         00h
       1000:03c0 00              ??         00h
       1000:03c1 00              ??         00h
       1000:03c2 00              ??         00h
       1000:03c3 00              ??         00h
       1000:03c4 00              ??         00h
       1000:03c5 00              ??         00h
       1000:03c6 00              ??         00h
       1000:03c7 00              ??         00h
       1000:03c8 00              ??         00h
       1000:03c9 00              ??         00h
       1000:03ca 00              ??         00h
       1000:03cb 00              ??         00h
       1000:03cc 00              ??         00h
       1000:03cd 00              ??         00h
       1000:03ce 00              ??         00h
       1000:03cf 00              ??         00h
       1000:03d0 00              ??         00h
       1000:03d1 00              ??         00h
       1000:03d2 00              ??         00h
       1000:03d3 00              ??         00h
       1000:03d4 00              ??         00h
       1000:03d5 00              ??         00h
       1000:03d6 00              ??         00h
       1000:03d7 00              ??         00h
       1000:03d8 00              ??         00h
       1000:03d9 00              ??         00h
       1000:03da 00              ??         00h
       1000:03db 00              ??         00h
       1000:03dc 00              ??         00h
       1000:03dd 00              ??         00h
       1000:03de 00              ??         00h
       1000:03df 00              ??         00h
       1000:03e0 00              ??         00h
       1000:03e1 00              ??         00h
       1000:03e2 00              ??         00h
       1000:03e3 00              ??         00h
       1000:03e4 00              ??         00h
       1000:03e5 00              ??         00h
       1000:03e6 00              ??         00h
       1000:03e7 00              ??         00h
       1000:03e8 00              ??         00h
       1000:03e9 00              ??         00h
       1000:03ea 00              ??         00h
       1000:03eb 00              ??         00h
       1000:03ec 00              ??         00h
       1000:03ed 00              ??         00h
       1000:03ee 00              ??         00h
       1000:03ef 00              ??         00h
       1000:03f0 00              ??         00h
       1000:03f1 00              ??         00h
       1000:03f2 00              ??         00h
       1000:03f3 00              ??         00h
       1000:03f4 00              ??         00h
       1000:03f5 00              ??         00h
       1000:03f6 00              ??         00h
       1000:03f7 00              ??         00h
       1000:03f8 00              ??         00h
       1000:03f9 00              ??         00h
       1000:03fa 00              ??         00h
       1000:03fb 00              ??         00h
       1000:03fc 00              ??         00h
       1000:03fd 00              ??         00h
       1000:03fe 00              ??         00h
       1000:03ff 00              ??         00h
       1000:0400 00              ??         00h
       1000:0401 00              ??         00h
       1000:0402 00              ??         00h
       1000:0403 00              ??         00h
       1000:0404 00              ??         00h
       1000:0405 00              ??         00h
       1000:0406 00              ??         00h
       1000:0407 00              ??         00h
       1000:0408 00              ??         00h
       1000:0409 00              ??         00h
       1000:040a 00              ??         00h
       1000:040b 00              ??         00h
       1000:040c 00              ??         00h
       1000:040d 00              ??         00h
       1000:040e 00              ??         00h
       1000:040f 00              ??         00h
       1000:0410 00              ??         00h
       1000:0411 00              ??         00h
       1000:0412 00              ??         00h
       1000:0413 00              ??         00h
       1000:0414 00              ??         00h
       1000:0415 00              ??         00h
       1000:0416 00              ??         00h
       1000:0417 00              ??         00h
       1000:0418 00              ??         00h
       1000:0419 00              ??         00h
       1000:041a 00              ??         00h
       1000:041b 00              ??         00h
       1000:041c 00              ??         00h
       1000:041d 00              ??         00h
       1000:041e 00              ??         00h
       1000:041f 00              ??         00h
       1000:0420 00              ??         00h
       1000:0421 00              ??         00h
       1000:0422 00              ??         00h
       1000:0423 00              ??         00h
       1000:0424 00              ??         00h
       1000:0425 00              ??         00h
       1000:0426 00              ??         00h
       1000:0427 00              ??         00h
       1000:0428 00              ??         00h
       1000:0429 00              ??         00h
       1000:042a 00              ??         00h
       1000:042b 00              ??         00h
       1000:042c 00              ??         00h
       1000:042d 00              ??         00h
       1000:042e 00              ??         00h
       1000:042f 00              ??         00h
       1000:0430 00              ??         00h
       1000:0431 00              ??         00h
       1000:0432 00              ??         00h
       1000:0433 00              ??         00h
       1000:0434 00              ??         00h
       1000:0435 00              ??         00h
       1000:0436 00              ??         00h
       1000:0437 00              ??         00h
       1000:0438 00              ??         00h
       1000:0439 00              ??         00h
       1000:043a 00              ??         00h
       1000:043b 00              ??         00h
       1000:043c 00              ??         00h
       1000:043d 00              ??         00h
       1000:043e 00              ??         00h
       1000:043f 00              ??         00h
       1000:0440 00              ??         00h
       1000:0441 00              ??         00h
       1000:0442 00              ??         00h
       1000:0443 00              ??         00h
       1000:0444 00              ??         00h
       1000:0445 00              ??         00h
       1000:0446 00              ??         00h
       1000:0447 00              ??         00h
       1000:0448 00              ??         00h
       1000:0449 00              ??         00h
       1000:044a 00              ??         00h
       1000:044b 00              ??         00h
       1000:044c 00              ??         00h
       1000:044d 00              ??         00h
       1000:044e 00              ??         00h
       1000:044f 00              ??         00h
                             //
                             // HEADER 
                             // HEADER::00000000-HEADER::0000003f
                             //
             assume CS = <UNKNOWN>
             assume DF = <UNKNOWN>
     R::00000000 4d 5a 90        OLD_IMAG                                                    Magic number
                 00 03 00 
                 00 00 04 
     R::0000001c 00              ??         00h
     R::0000001d 00              ??         00h
     R::0000001e 00              ??         00h
     R::0000001f 00              ??         00h
     R::00000020 00              ??         00h
     R::00000021 00              ??         00h
     R::00000022 00              ??         00h
     R::00000023 00              ??         00h
     R::00000024 00              ??         00h
     R::00000025 00              ??         00h
     R::00000026 00              ??         00h
     R::00000027 00              ??         00h
     R::00000028 00              ??         00h
     R::00000029 00              ??         00h
     R::0000002a 00              ??         00h
     R::0000002b 00              ??         00h
     R::0000002c 00              ??         00h
     R::0000002d 00              ??         00h
     R::0000002e 00              ??         00h
     R::0000002f 00              ??         00h
     R::00000030 00              ??         00h
     R::00000031 00              ??         00h
     R::00000032 00              ??         00h
     R::00000033 00              ??         00h
     R::00000034 00              ??         00h
     R::00000035 00              ??         00h
     R::00000036 00              ??         00h
     R::00000037 00              ??         00h
     R::00000038 00              ??         00h
     R::00000039 00              ??         00h
     R::0000003a 00              ??         00h
     R::0000003b 00              ??         00h
     R::0000003c d0              ??         D0h
     R::0000003d 00              ??         00h
     R::0000003e 00              ??         00h
     R::0000003f 00              ??         00h
