                             //
                             // CODE_0 
                             // ram:1000:0000-ram:1000:044f
                             //
                             **************************************************************
                             *                          FUNCTION                          *
                             **************************************************************
                             undefined __stdcall16far entry(void)
                               assume CS = 0x1000
                               assume SP = 0xb8
                               assume SS = 0x1000
             undefined         AL:1           <RETURN>
                             entry                                           XREF[1]:     Entry Point(*)  
       1000:0000 0e              PUSH       CS=>LAB_1000_00b6
             assume SS = <UNKNOWN>
             assume SP = <UNKNOWN>
       1000:0001 1f              POP        DS=>LAB_1000_00b6
       1000:0002 ba 0e 00        MOV        DX,0xe
       1000:0005 b4 09           MOV        AH,0x9
       1000:0007 cd 21           INT        0x21
       1000:0009 b8 01 4c        MOV        AX,0x4c01
       1000:000c cd 21           INT        0x21
       1000:000e 54              PUSH       SP
       1000:000f 68 69 73        PUSH       0x7369
       1000:0012 20 70 72        AND        byte ptr [BX + SI + 0x72],DH
       1000:0015 6f              OUTSW      DX,SI
       1000:0016 67 72 61        JC         LAB_1000_007a
       1000:0019 6d              INSW       ES:DI,DX
       1000:001a 20 63 61        AND        byte ptr [BP + DI + 0x61],AH
       1000:001d 6e              OUTSB      DX,SI
       1000:001e 6e              OUTSB      DX,SI
       1000:001f 6f              OUTSW      DX,SI
       1000:0020 74 20           JZ         LAB_1000_0040+2
       1000:0022 62 65 20        BOUND      SP,word ptr [DI + 0x20]
       1000:0025 72 75           JC         LAB_1000_009c
       1000:0027 6e              OUTSB      DX,SI
       1000:0028 20 69 6e        AND        byte ptr [BX + DI + 0x6e],CH
       1000:002b 20 44 4f        AND        byte ptr [SI + 0x4f],AL
       1000:002e 53              PUSH       BX
       1000:002f 20 6d 6f        AND        byte ptr [DI + 0x6f],CH
       1000:0032 64 65 2e        OR         AX,0xa0d
                 0d 0d 0a
       1000:0038 24 00           AND        AL,0x0
       1000:003a 00 00           ADD        byte ptr [BX + SI],AL
       1000:003c 00 00           ADD        byte ptr [BX + SI],AL
       1000:003e 00 00           ADD        byte ptr [BX + SI],AL
                             LAB_1000_0040+2                                 XREF[0,1]:   1000:0020(j)  
       1000:0040 ca 58 6a        RETF       0x6a58
       1000:0043 53              ??         53h    S
       1000:0044 8e              ??         8Eh
       1000:0045 39              ??         39h    9
       1000:0046 04              ??         04h
       1000:0047 00              ??         00h
       1000:0048 8e              ??         8Eh
       1000:0049 39              ??         39h    9
       1000:004a 04              ??         04h
       1000:004b 00              ??         00h
       1000:004c 8e              ??         8Eh
       1000:004d 39              ??         39h    9
       1000:004e 04              ??         04h
       1000:004f 00              ??         00h
       1000:0050 8e              ??         8Eh
       1000:0051 39              ??         39h    9
       1000:0052 04              ??         04h
       1000:0053 00              ??         00h
       1000:0054 63              ??         63h    c
       1000:0055 39              ??         39h    9
       1000:0056 04              ??         04h
       1000:0057 00              ??         00h
       1000:0058 09              ??         09h
       1000:0059 25              ??         25h    %
       1000:005a 06              ??         06h
       1000:005b 00              ??         00h
       1000:005c 8f              ??         8Fh
       1000:005d 39              ??         39h    9
       1000:005e 04              ??         04h
       1000:005f 00              ??         00h
       1000:0060 52              ??         52h    R
       1000:0061 69              ??         69h    i
       1000:0062 63              ??         63h    c
       1000:0063 68              ??         68h    h
       1000:0064 8e              ??         8Eh
       1000:0065 39              ??         39h    9
       1000:0066 04              ??         04h
       1000:0067 00              ??         00h
       1000:0068 00              ??         00h
       1000:0069 00              ??         00h
       1000:006a 00              ??         00h
       1000:006b 00              ??         00h
       1000:006c 00              ??         00h
       1000:006d 00              ??         00h
       1000:006e 00              ??         00h
       1000:006f 00              ??         00h
       1000:0070 50              ??         50h    P
       1000:0071 45              ??         45h    E
       1000:0072 00              ??         00h
       1000:0073 00              ??         00h
       1000:0074 4c              ??         4Ch    L
       1000:0075 01              ??         01h
       1000:0076 06              ??         06h
       1000:0077 00              ??         00h
       1000:0078 31              ??         31h    1
       1000:0079 39              ??         39h    9
                             LAB_1000_007a                                   XREF[1]:     1000:0016(j)  
       1000:007a 31 31           XOR        word ptr [BX + DI],SI
       1000:007c 00 00           ADD        byte ptr [BX + SI],AL
       1000:007e 00 00           ADD        byte ptr [BX + SI],AL
       1000:0080 00 00           ADD        byte ptr [BX + SI],AL
       1000:0082 00 00           ADD        byte ptr [BX + SI],AL
       1000:0084 e0 00           LOOPNZ     LAB_1000_0086
                             LAB_1000_0086                                   XREF[1]:     1000:0084(j)  
       1000:0086 0e              PUSH       CS
       1000:0087 21 0b           AND        word ptr [BP + DI],CX
       1000:0089 01 05           ADD        word ptr [DI],AX
       1000:008b 0a 00           OR         AL,byte ptr [BX + SI]
       1000:008d aa              STOSB      ES:DI
       1000:008e 00 00           ADD        byte ptr [BX + SI],AL
       1000:0090 00 8a 00 00     ADD        byte ptr [BP + SI + 0x0],CL
       1000:0094 00 00           ADD        byte ptr [BX + SI],AL
       1000:0096 00 00           ADD        byte ptr [BX + SI],AL
       1000:0098 40              INC        AX
       1000:0099 61              POPA
       1000:009a 00 00           ADD        byte ptr [BX + SI],AL
                             LAB_1000_009c                                   XREF[1]:     1000:0025(j)  
       1000:009c 00 10           ADD        byte ptr [BX + SI],DL
       1000:009e 00 00           ADD        byte ptr [BX + SI],AL
       1000:00a0 00 d0           ADD        AL,DL
       1000:00a2 00 00           ADD        byte ptr [BX + SI],AL
       1000:00a4 00 00           ADD        byte ptr [BX + SI],AL
       1000:00a6 00 10           ADD        byte ptr [BX + SI],DL
       1000:00a8 00 10           ADD        byte ptr [BX + SI],DL
       1000:00aa 00 00           ADD        byte ptr [BX + SI],AL
       1000:00ac 00 02           ADD        byte ptr [BP + SI],AL
       1000:00ae 00 00           ADD        byte ptr [BX + SI],AL
       1000:00b0 04 00           ADD        AL,0x0
       1000:00b2 00 00           ADD        byte ptr [BX + SI],AL
       1000:00b4 00 00           ADD        byte ptr [BX + SI],AL
                             LAB_1000_00b6                                   XREF[2]:     1000:0000(W), 1000:0001(R)  
       1000:00b6 00 00           ADD        byte ptr [BX + SI],AL
       1000:00b8 04 00           ADD        AL,0x0
       1000:00ba 00 00           ADD        byte ptr [BX + SI],AL
       1000:00bc 00 00           ADD        byte ptr [BX + SI],AL
       1000:00be 00 00           ADD        byte ptr [BX + SI],AL
       1000:00c0 00 80 01 00     ADD        byte ptr [BX + SI + 0x1],AL
       1000:00c4 00 04           ADD        byte ptr [SI],AL
       1000:00c6 00 00           ADD        byte ptr [BX + SI],AL
       1000:00c8 00 00           ADD        byte ptr [BX + SI],AL
       1000:00ca 00 00           ADD        byte ptr [BX + SI],AL
       1000:00cc 02 00           ADD        AL,byte ptr [BX + SI]
                             LAB_1000_00ce                                   XREF[1]:     1000:00e8(j)  
       1000:00ce 00 00           ADD        byte ptr [BX + SI],AL
       1000:00d0 00 00           ADD        byte ptr [BX + SI],AL
       1000:00d2 10 00           ADC        byte ptr [BX + SI],AL
       1000:00d4 00 10           ADD        byte ptr [BX + SI],DL
       1000:00d6 00 00           ADD        byte ptr [BX + SI],AL
       1000:00d8 00 00           ADD        byte ptr [BX + SI],AL
       1000:00da 10 00           ADC        byte ptr [BX + SI],AL
       1000:00dc 00 10           ADD        byte ptr [BX + SI],DL
       1000:00de 00 00           ADD        byte ptr [BX + SI],AL
       1000:00e0 00 00           ADD        byte ptr [BX + SI],AL
       1000:00e2 00 00           ADD        byte ptr [BX + SI],AL
       1000:00e4 10 00           ADC        byte ptr [BX + SI],AL
       1000:00e6 00 00           ADD        byte ptr [BX + SI],AL
       1000:00e8 70 e4           JO         LAB_1000_00ce
       1000:00ea 00 00           ADD        byte ptr [BX + SI],AL
       1000:00ec 97              XCHG       AX,DI
       1000:00ed 00 00           ADD        byte ptr [BX + SI],AL
       1000:00ef 00 20           ADD        byte ptr [BX + SI],AH
       1000:00f1 dd 00           FLD        qword ptr [BX + SI]
       1000:00f3 00 50 00        ADD        byte ptr [BX + SI + 0x0],DL
       1000:00f6 00 00           ADD        byte ptr [BX + SI],AL
       1000:00f8 00 00           ADD        byte ptr [BX + SI],AL
       1000:00fa 00 00           ADD        byte ptr [BX + SI],AL
       1000:00fc 00 00           ADD        byte ptr [BX + SI],AL
       1000:00fe 00 00           ADD        byte ptr [BX + SI],AL
       1000:0100 00 00           ADD        byte ptr [BX + SI],AL
       1000:0102 00 00           ADD        byte ptr [BX + SI],AL
       1000:0104 00 00           ADD        byte ptr [BX + SI],AL
       1000:0106 00 00           ADD        byte ptr [BX + SI],AL
       1000:0108 00 00           ADD        byte ptr [BX + SI],AL
       1000:010a 00 00           ADD        byte ptr [BX + SI],AL
       1000:010c 00 00           ADD        byte ptr [BX + SI],AL
       1000:010e 00 00           ADD        byte ptr [BX + SI],AL
       1000:0110 00 60 01        ADD        byte ptr [BX + SI + 0x1],AH
       1000:0113 00 40 0a        ADD        byte ptr [BX + SI + 0xa],AL
       1000:0116 00 00           ADD        byte ptr [BX + SI],AL
       1000:0118 00 00           ADD        byte ptr [BX + SI],AL
       1000:011a 00 00           ADD        byte ptr [BX + SI],AL
       1000:011c 00 00           ADD        byte ptr [BX + SI],AL
       1000:011e 00 00           ADD        byte ptr [BX + SI],AL
       1000:0120 00 00           ADD        byte ptr [BX + SI],AL
       1000:0122 00 00           ADD        byte ptr [BX + SI],AL
       1000:0124 00 00           ADD        byte ptr [BX + SI],AL
       1000:0126 00 00           ADD        byte ptr [BX + SI],AL
       1000:0128 00 00           ADD        byte ptr [BX + SI],AL
       1000:012a 00 00           ADD        byte ptr [BX + SI],AL
       1000:012c 00 00           ADD        byte ptr [BX + SI],AL
       1000:012e 00 00           ADD        byte ptr [BX + SI],AL
       1000:0130 00 00           ADD        byte ptr [BX + SI],AL
       1000:0132 00 00           ADD        byte ptr [BX + SI],AL
       1000:0134 00 00           ADD        byte ptr [BX + SI],AL
       1000:0136 00 00           ADD        byte ptr [BX + SI],AL
       1000:0138 00              ??         00h
       1000:0139 00              ??         00h
       1000:013a 00              ??         00h
       1000:013b 00              ??         00h
       1000:013c 00              ??         00h
       1000:013d 00              ??         00h
       1000:013e 00              ??         00h
       1000:013f 00              ??         00h
       1000:0140 00              ??         00h
       1000:0141 00              ??         00h
       1000:0142 00              ??         00h
       1000:0143 00              ??         00h
       1000:0144 00              ??         00h
       1000:0145 00              ??         00h
       1000:0146 00              ??         00h
       1000:0147 00              ??         00h
       1000:0148 00              ??         00h
       1000:0149 d0              ??         D0h
       1000:014a 00              ??         00h
       1000:014b 00              ??         00h
       1000:014c 48              ??         48h    H
       1000:014d 01              ??         01h
       1000:014e 00              ??         00h
       1000:014f 00              ??         00h
       1000:0150 00              ??         00h
       1000:0151 00              ??         00h
       1000:0152 00              ??         00h
       1000:0153 00              ??         00h
       1000:0154 00              ??         00h
       1000:0155 00              ??         00h
       1000:0156 00              ??         00h
       1000:0157 00              ??         00h
       1000:0158 00              ??         00h
       1000:0159 00              ??         00h
       1000:015a 00              ??         00h
       1000:015b 00              ??         00h
       1000:015c 00              ??         00h
       1000:015d 00              ??         00h
       1000:015e 00              ??         00h
       1000:015f 00              ??         00h
       1000:0160 00              ??         00h
       1000:0161 00              ??         00h
       1000:0162 00              ??         00h
       1000:0163 00              ??         00h
       1000:0164 00              ??         00h
       1000:0165 00              ??         00h
       1000:0166 00              ??         00h
       1000:0167 00              ??         00h
       1000:0168 2e              ??         2Eh    .
       1000:0169 74              ??         74h    t
       1000:016a 78              ??         78h    x
       1000:016b 74              ??         74h    t
       1000:016c 00              ??         00h
       1000:016d 00              ??         00h
       1000:016e 00              ??         00h
       1000:016f 00              ??         00h
       1000:0170 e0              ??         E0h
       1000:0171 1e              ??         1Eh
       1000:0172 00              ??         00h
       1000:0173 00              ??         00h
       1000:0174 00              ??         00h
       1000:0175 10              ??         10h
       1000:0176 00              ??         00h
       1000:0177 00              ??         00h
       1000:0178 00              ??         00h
       1000:0179 20              ??         20h     
       1000:017a 00              ??         00h
       1000:017b 00              ??         00h
       1000:017c 00              ??         00h
       1000:017d 04              ??         04h
       1000:017e 00              ??         00h
       1000:017f 00              ??         00h
       1000:0180 00              ??         00h
       1000:0181 00              ??         00h
       1000:0182 00              ??         00h
       1000:0183 00              ??         00h
       1000:0184 00              ??         00h
       1000:0185 00              ??         00h
       1000:0186 00              ??         00h
       1000:0187 00              ??         00h
       1000:0188 00              ??         00h
       1000:0189 00              ??         00h
       1000:018a 00              ??         00h
       1000:018b 00              ??         00h
       1000:018c 20              ??         20h     
       1000:018d 00              ??         00h
       1000:018e 00              ??         00h
       1000:018f 60              ??         60h    `
       1000:0190 2e              ??         2Eh    .
       1000:0191 74              ??         74h    t
       1000:0192 65              ??         65h    e
       1000:0193 78              ??         78h    x
       1000:0194 74              ??         74h    t
       1000:0195 00              ??         00h
       1000:0196 00              ??         00h
       1000:0197 00              ??         00h
       1000:0198 00              ??         00h
       1000:0199 88              ??         88h
       1000:019a 00              ??         00h
       1000:019b 00              ??         00h
       1000:019c 00              ??         00h
       1000:019d 30              ??         30h    0
       1000:019e 00              ??         00h
       1000:019f 00              ??         00h
       1000:01a0 00              ??         00h
       1000:01a1 88              ??         88h
       1000:01a2 00              ??         00h
       1000:01a3 00              ??         00h
       1000:01a4 00              ??         00h
       1000:01a5 24              ??         24h    $
       1000:01a6 00              ??         00h
       1000:01a7 00              ??         00h
       1000:01a8 00              ??         00h
       1000:01a9 00              ??         00h
       1000:01aa 00              ??         00h
       1000:01ab 00              ??         00h
       1000:01ac 00              ??         00h
       1000:01ad 00              ??         00h
       1000:01ae 00              ??         00h
       1000:01af 00              ??         00h
       1000:01b0 00              ??         00h
       1000:01b1 00              ??         00h
       1000:01b2 00              ??         00h
       1000:01b3 00              ??         00h
       1000:01b4 20              ??         20h     
       1000:01b5 00              ??         00h
       1000:01b6 00              ??         00h
       1000:01b7 60              ??         60h    `
       1000:01b8 2e              ??         2Eh    .
       1000:01b9 74              ??         74h    t
       1000:01ba 78              ??         78h    x
       1000:01bb 74              ??         74h    t
       1000:01bc 32              ??         32h    2
       1000:01bd 00              ??         00h
       1000:01be 00              ??         00h
       1000:01bf 00              ??         00h
       1000:01c0 10              ??         10h
       1000:01c1 01              ??         01h
       1000:01c2 00              ??         00h
       1000:01c3 00              ??         00h
       1000:01c4 00              ??         00h
       1000:01c5 c0              ??         C0h
       1000:01c6 00              ??         00h
       1000:01c7 00              ??         00h
       1000:01c8 00              ??         00h
       1000:01c9 02              ??         02h
       1000:01ca 00              ??         00h
       1000:01cb 00              ??         00h
       1000:01cc 00              ??         00h
       1000:01cd ac              ??         ACh
       1000:01ce 00              ??         00h
       1000:01cf 00              ??         00h
       1000:01d0 00              ??         00h
       1000:01d1 00              ??         00h
       1000:01d2 00              ??         00h
       1000:01d3 00              ??         00h
       1000:01d4 00              ??         00h
       1000:01d5 00              ??         00h
       1000:01d6 00              ??         00h
       1000:01d7 00              ??         00h
       1000:01d8 00              ??         00h
       1000:01d9 00              ??         00h
       1000:01da 00              ??         00h
       1000:01db 00              ??         00h
       1000:01dc 20              ??         20h     
       1000:01dd 00              ??         00h
       1000:01de 00              ??         00h
       1000:01df 60 2e 72        ds         "`.rdata"
                 64 61 74 
                 61 00 00
       1000:01e8 07              ??         07h
       1000:01e9 15              ??         15h
       1000:01ea 00              ??         00h
       1000:01eb 00              ??         00h
       1000:01ec 00              ??         00h
       1000:01ed d0              ??         D0h
       1000:01ee 00              ??         00h
       1000:01ef 00              ??         00h
       1000:01f0 00              ??         00h
       1000:01f1 16              ??         16h
       1000:01f2 00              ??         00h
       1000:01f3 00              ??         00h
       1000:01f4 00              ??         00h
       1000:01f5 ae              ??         AEh
       1000:01f6 00              ??         00h
       1000:01f7 00              ??         00h
       1000:01f8 00              ??         00h
       1000:01f9 00              ??         00h
       1000:01fa 00              ??         00h
       1000:01fb 00              ??         00h
       1000:01fc 00              ??         00h
       1000:01fd 00              ??         00h
       1000:01fe 00              ??         00h
       1000:01ff 00              ??         00h
       1000:0200 00              ??         00h
       1000:0201 00              ??         00h
       1000:0202 00              ??         00h
       1000:0203 00              ??         00h
       1000:0204 40              ??         40h    @
       1000:0205 00              ??         00h
       1000:0206 00              ??         00h
       1000:0207 40              ??         40h    @
       1000:0208 2e              ??         2Eh    .
       1000:0209 64              ??         64h    d
       1000:020a 61              ??         61h    a
       1000:020b 74              ??         74h    t
       1000:020c 61              ??         61h    a
       1000:020d 00              ??         00h
       1000:020e 00              ??         00h
       1000:020f 00              ??         00h
       1000:0210 9c              ??         9Ch
       1000:0211 61              ??         61h    a
       1000:0212 00              ??         00h
       1000:0213 00              ??         00h
       1000:0214 00              ??         00h
       1000:0215 f0              ??         F0h
       1000:0216 00              ??         00h
       1000:0217 00              ??         00h
       1000:0218 00              ??         00h
       1000:0219 38              ??         38h    8
       1000:021a 00              ??         00h
       1000:021b 00              ??         00h
       1000:021c 00              ??         00h
       1000:021d c4              ??         C4h
       1000:021e 00              ??         00h
       1000:021f 00              ??         00h
       1000:0220 00              ??         00h
       1000:0221 00              ??         00h
       1000:0222 00              ??         00h
       1000:0223 00              ??         00h
       1000:0224 00              ??         00h
       1000:0225 00              ??         00h
       1000:0226 00              ??         00h
       1000:0227 00              ??         00h
       1000:0228 00              ??         00h
       1000:0229 00              ??         00h
       1000:022a 00              ??         00h
       1000:022b 00              ??         00h
       1000:022c 40              ??         40h    @
       1000:022d 00              ??         00h
       1000:022e 00              ??         00h
       1000:022f c0              ??         C0h
       1000:0230 2e 72 65        ds         ".reloc"
                 6c 6f 63 
                 00 00
       1000:0238 10              ??         10h
       1000:0239 11              ??         11h
       1000:023a 00              ??         00h
       1000:023b 00              ??         00h
       1000:023c 00              ??         00h
       1000:023d 60              ??         60h    `
       1000:023e 01              ??         01h
       1000:023f 00              ??         00h
       1000:0240 00              ??         00h
       1000:0241 12              ??         12h
       1000:0242 00              ??         00h
       1000:0243 00              ??         00h
       1000:0244 00              ??         00h
       1000:0245 fc              ??         FCh
       1000:0246 00              ??         00h
       1000:0247 00              ??         00h
       1000:0248 00              ??         00h
       1000:0249 00              ??         00h
       1000:024a 00              ??         00h
       1000:024b 00              ??         00h
       1000:024c 00              ??         00h
       1000:024d 00              ??         00h
       1000:024e 00              ??         00h
       1000:024f 00              ??         00h
       1000:0250 00              ??         00h
       1000:0251 00              ??         00h
       1000:0252 00              ??         00h
       1000:0253 00              ??         00h
       1000:0254 40              ??         40h    @
       1000:0255 00              ??         00h
       1000:0256 00              ??         00h
       1000:0257 42              ??         42h    B
       1000:0258 00              ??         00h
       1000:0259 00              ??         00h
       1000:025a 00              ??         00h
       1000:025b 00              ??         00h
       1000:025c 00              ??         00h
       1000:025d 00              ??         00h
       1000:025e 00              ??         00h
       1000:025f 00              ??         00h
       1000:0260 00              ??         00h
       1000:0261 00              ??         00h
       1000:0262 00              ??         00h
       1000:0263 00              ??         00h
       1000:0264 00              ??         00h
       1000:0265 00              ??         00h
       1000:0266 00              ??         00h
       1000:0267 00              ??         00h
       1000:0268 00              ??         00h
       1000:0269 00              ??         00h
       1000:026a 00              ??         00h
       1000:026b 00              ??         00h
       1000:026c 00              ??         00h
       1000:026d 00              ??         00h
       1000:026e 00              ??         00h
       1000:026f 00              ??         00h
       1000:0270 00              ??         00h
       1000:0271 00              ??         00h
       1000:0272 00              ??         00h
       1000:0273 00              ??         00h
       1000:0274 00              ??         00h
       1000:0275 00              ??         00h
       1000:0276 00              ??         00h
       1000:0277 00              ??         00h
       1000:0278 00              ??         00h
       1000:0279 00              ??         00h
       1000:027a 00              ??         00h
       1000:027b 00              ??         00h
       1000:027c 00              ??         00h
       1000:027d 00              ??         00h
       1000:027e 00              ??         00h
       1000:027f 00              ??         00h
       1000:0280 00              ??         00h
       1000:0281 00              ??         00h
       1000:0282 00              ??         00h
       1000:0283 00              ??         00h
       1000:0284 00              ??         00h
       1000:0285 00              ??         00h
       1000:0286 00              ??         00h
       1000:0287 00              ??         00h
       1000:0288 00              ??         00h
       1000:0289 00              ??         00h
       1000:028a 00              ??         00h
       1000:028b 00              ??         00h
       1000:028c 00              ??         00h
       1000:028d 00              ??         00h
       1000:028e 00              ??         00h
       1000:028f 00              ??         00h
       1000:0290 00              ??         00h
       1000:0291 00              ??         00h
       1000:0292 00              ??         00h
       1000:0293 00              ??         00h
       1000:0294 00              ??         00h
       1000:0295 00              ??         00h
       1000:0296 00              ??         00h
       1000:0297 00              ??         00h
       1000:0298 00              ??         00h
       1000:0299 00              ??         00h
       1000:029a 00              ??         00h
       1000:029b 00              ??         00h
       1000:029c 00              ??         00h
       1000:029d 00              ??         00h
       1000:029e 00              ??         00h
       1000:029f 00              ??         00h
       1000:02a0 00              ??         00h
       1000:02a1 00              ??         00h
       1000:02a2 00              ??         00h
       1000:02a3 00              ??         00h
       1000:02a4 00              ??         00h
       1000:02a5 00              ??         00h
       1000:02a6 00              ??         00h
       1000:02a7 00              ??         00h
       1000:02a8 00              ??         00h
       1000:02a9 00              ??         00h
       1000:02aa 00              ??         00h
       1000:02ab 00              ??         00h
       1000:02ac 00              ??         00h
       1000:02ad 00              ??         00h
       1000:02ae 00              ??         00h
       1000:02af 00              ??         00h
       1000:02b0 00              ??         00h
       1000:02b1 00              ??         00h
       1000:02b2 00              ??         00h
       1000:02b3 00              ??         00h
       1000:02b4 00              ??         00h
       1000:02b5 00              ??         00h
       1000:02b6 00              ??         00h
       1000:02b7 00              ??         00h
       1000:02b8 00              ??         00h
       1000:02b9 00              ??         00h
       1000:02ba 00              ??         00h
       1000:02bb 00              ??         00h
       1000:02bc 00              ??         00h
       1000:02bd 00              ??         00h
       1000:02be 00              ??         00h
       1000:02bf 00              ??         00h
       1000:02c0 00              ??         00h
       1000:02c1 00              ??         00h
       1000:02c2 00              ??         00h
       1000:02c3 00              ??         00h
       1000:02c4 00              ??         00h
       1000:02c5 00              ??         00h
       1000:02c6 00              ??         00h
       1000:02c7 00              ??         00h
       1000:02c8 00              ??         00h
       1000:02c9 00              ??         00h
       1000:02ca 00              ??         00h
       1000:02cb 00              ??         00h
       1000:02cc 00              ??         00h
       1000:02cd 00              ??         00h
       1000:02ce 00              ??         00h
       1000:02cf 00              ??         00h
       1000:02d0 00              ??         00h
       1000:02d1 00              ??         00h
       1000:02d2 00              ??         00h
       1000:02d3 00              ??         00h
       1000:02d4 00              ??         00h
       1000:02d5 00              ??         00h
       1000:02d6 00              ??         00h
       1000:02d7 00              ??         00h
       1000:02d8 00              ??         00h
       1000:02d9 00              ??         00h
       1000:02da 00              ??         00h
       1000:02db 00              ??         00h
       1000:02dc 00              ??         00h
       1000:02dd 00              ??         00h
       1000:02de 00              ??         00h
       1000:02df 00              ??         00h
       1000:02e0 00              ??         00h
       1000:02e1 00              ??         00h
       1000:02e2 00              ??         00h
       1000:02e3 00              ??         00h
       1000:02e4 00              ??         00h
       1000:02e5 00              ??         00h
       1000:02e6 00              ??         00h
       1000:02e7 00              ??         00h
       1000:02e8 00              ??         00h
       1000:02e9 00              ??         00h
       1000:02ea 00              ??         00h
       1000:02eb 00              ??         00h
       1000:02ec 00              ??         00h
       1000:02ed 00              ??         00h
       1000:02ee 00              ??         00h
       1000:02ef 00              ??         00h
       1000:02f0 00              ??         00h
       1000:02f1 00              ??         00h
       1000:02f2 00              ??         00h
       1000:02f3 00              ??         00h
       1000:02f4 00              ??         00h
       1000:02f5 00              ??         00h
       1000:02f6 00              ??         00h
       1000:02f7 00              ??         00h
       1000:02f8 00              ??         00h
       1000:02f9 00              ??         00h
       1000:02fa 00              ??         00h
       1000:02fb 00              ??         00h
       1000:02fc 00              ??         00h
       1000:02fd 00              ??         00h
       1000:02fe 00              ??         00h
       1000:02ff 00              ??         00h
       1000:0300 00              ??         00h
       1000:0301 00              ??         00h
       1000:0302 00              ??         00h
       1000:0303 00              ??         00h
       1000:0304 00              ??         00h
       1000:0305 00              ??         00h
       1000:0306 00              ??         00h
       1000:0307 00              ??         00h
       1000:0308 00              ??         00h
       1000:0309 00              ??         00h
       1000:030a 00              ??         00h
       1000:030b 00              ??         00h
       1000:030c 00              ??         00h
       1000:030d 00              ??         00h
       1000:030e 00              ??         00h
       1000:030f 00              ??         00h
       1000:0310 00              ??         00h
       1000:0311 00              ??         00h
       1000:0312 00              ??         00h
       1000:0313 00              ??         00h
       1000:0314 00              ??         00h
       1000:0315 00              ??         00h
       1000:0316 00              ??         00h
       1000:0317 00              ??         00h
       1000:0318 00              ??         00h
       1000:0319 00              ??         00h
       1000:031a 00              ??         00h
       1000:031b 00              ??         00h
       1000:031c 00              ??         00h
       1000:031d 00              ??         00h
       1000:031e 00              ??         00h
       1000:031f 00              ??         00h
       1000:0320 00              ??         00h
       1000:0321 00              ??         00h
       1000:0322 00              ??         00h
       1000:0323 00              ??         00h
       1000:0324 00              ??         00h
       1000:0325 00              ??         00h
       1000:0326 00              ??         00h
       1000:0327 00              ??         00h
       1000:0328 00              ??         00h
       1000:0329 00              ??         00h
       1000:032a 00              ??         00h
       1000:032b 00              ??         00h
       1000:032c 00              ??         00h
       1000:032d 00              ??         00h
       1000:032e 00              ??         00h
       1000:032f 00              ??         00h
       1000:0330 00              ??         00h
       1000:0331 00              ??         00h
       1000:0332 00              ??         00h
       1000:0333 00              ??         00h
       1000:0334 00              ??         00h
       1000:0335 00              ??         00h
       1000:0336 00              ??         00h
       1000:0337 00              ??         00h
       1000:0338 00              ??         00h
       1000:0339 00              ??         00h
       1000:033a 00              ??         00h
       1000:033b 00              ??         00h
       1000:033c 00              ??         00h
       1000:033d 00              ??         00h
       1000:033e 00              ??         00h
       1000:033f 00              ??         00h
       1000:0340 00              ??         00h
       1000:0341 00              ??         00h
       1000:0342 00              ??         00h
       1000:0343 00              ??         00h
       1000:0344 00              ??         00h
       1000:0345 00              ??         00h
       1000:0346 00              ??         00h
       1000:0347 00              ??         00h
       1000:0348 00              ??         00h
       1000:0349 00              ??         00h
       1000:034a 00              ??         00h
       1000:034b 00              ??         00h
       1000:034c 00              ??         00h
       1000:034d 00              ??         00h
       1000:034e 00              ??         00h
       1000:034f 00              ??         00h
       1000:0350 00              ??         00h
       1000:0351 00              ??         00h
       1000:0352 00              ??         00h
       1000:0353 00              ??         00h
       1000:0354 00              ??         00h
       1000:0355 00              ??         00h
       1000:0356 00              ??         00h
       1000:0357 00              ??         00h
       1000:0358 00              ??         00h
       1000:0359 00              ??         00h
       1000:035a 00              ??         00h
       1000:035b 00              ??         00h
       1000:035c 00              ??         00h
       1000:035d 00              ??         00h
       1000:035e 00              ??         00h
       1000:035f 00              ??         00h
       1000:0360 00              ??         00h
       1000:0361 00              ??         00h
       1000:0362 00              ??         00h
       1000:0363 00              ??         00h
       1000:0364 00              ??         00h
       1000:0365 00              ??         00h
       1000:0366 00              ??         00h
       1000:0367 00              ??         00h
       1000:0368 00              ??         00h
       1000:0369 00              ??         00h
       1000:036a 00              ??         00h
       1000:036b 00              ??         00h
       1000:036c 00              ??         00h
       1000:036d 00              ??         00h
       1000:036e 00              ??         00h
       1000:036f 00              ??         00h
       1000:0370 00              ??         00h
       1000:0371 00              ??         00h
       1000:0372 00              ??         00h
       1000:0373 00              ??         00h
       1000:0374 00              ??         00h
       1000:0375 00              ??         00h
       1000:0376 00              ??         00h
       1000:0377 00              ??         00h
       1000:0378 00              ??         00h
       1000:0379 00              ??         00h
       1000:037a 00              ??         00h
       1000:037b 00              ??         00h
       1000:037c 00              ??         00h
       1000:037d 00              ??         00h
       1000:037e 00              ??         00h
       1000:037f 00              ??         00h
       1000:0380 00              ??         00h
       1000:0381 00              ??         00h
       1000:0382 00              ??         00h
       1000:0383 00              ??         00h
       1000:0384 00              ??         00h
       1000:0385 00              ??         00h
       1000:0386 00              ??         00h
       1000:0387 00              ??         00h
       1000:0388 00              ??         00h
       1000:0389 00              ??         00h
       1000:038a 00              ??         00h
       1000:038b 00              ??         00h
       1000:038c 00              ??         00h
       1000:038d 00              ??         00h
       1000:038e 00              ??         00h
       1000:038f 00              ??         00h
       1000:0390 00              ??         00h
       1000:0391 00              ??         00h
       1000:0392 00              ??         00h
       1000:0393 00              ??         00h
       1000:0394 00              ??         00h
       1000:0395 00              ??         00h
       1000:0396 00              ??         00h
       1000:0397 00              ??         00h
       1000:0398 00              ??         00h
       1000:0399 00              ??         00h
       1000:039a 00              ??         00h
       1000:039b 00              ??         00h
       1000:039c 00              ??         00h
       1000:039d 00              ??         00h
       1000:039e 00              ??         00h
       1000:039f 00              ??         00h
       1000:03a0 00              ??         00h
       1000:03a1 00              ??         00h
       1000:03a2 00              ??         00h
       1000:03a3 00              ??         00h
       1000:03a4 00              ??         00h
       1000:03a5 00              ??         00h
       1000:03a6 00              ??         00h
       1000:03a7 00              ??         00h
       1000:03a8 00              ??         00h
       1000:03a9 00              ??         00h
       1000:03aa 00              ??         00h
       1000:03ab 00              ??         00h
       1000:03ac 00              ??         00h
       1000:03ad 00              ??         00h
       1000:03ae 00              ??         00h
       1000:03af 00              ??         00h
       1000:03b0 00              ??         00h
       1000:03b1 00              ??         00h
       1000:03b2 00              ??         00h
       1000:03b3 00              ??         00h
       1000:03b4 00              ??         00h
       1000:03b5 00              ??         00h
       1000:03b6 00              ??         00h
       1000:03b7 00              ??         00h
       1000:03b8 00              ??         00h
       1000:03b9 00              ??         00h
       1000:03ba 00              ??         00h
       1000:03bb 00              ??         00h
       1000:03bc 00              ??         00h
       1000:03bd 00              ??         00h
       1000:03be 00              ??         00h
       1000:03bf 00              ??         00h
       1000:03c0 56              ??         56h    V
       1000:03c1 8b              ??         8Bh
       1000:03c2 74              ??         74h    t
       1000:03c3 24              ??         24h    $
       1000:03c4 08              ??         08h
       1000:03c5 56              ??         56h    V
       1000:03c6 ff              ??         FFh
       1000:03c7 15              ??         15h
       1000:03c8 f8              ??         F8h
       1000:03c9 27              ??         27h    '
       1000:03ca 01              ??         01h
       1000:03cb 10              ??         10h
       1000:03cc 8a              ??         8Ah
       1000:03cd 46              ??         46h    F
       1000:03ce 01              ??         01h
       1000:03cf 83              ??         83h
       1000:03d0 c4              ??         C4h
       1000:03d1 04              ??         04h
       1000:03d2 84              ??         84h
       1000:03d3 c0              ??         C0h
       1000:03d4 75              ??         75h    u
       1000:03d5 0e              ??         0Eh
       1000:03d6 a1              ??         A1h
       1000:03d7 e0              ??         E0h
       1000:03d8 27              ??         27h    '
       1000:03d9 01              ??         01h
       1000:03da 10              ??         10h
       1000:03db 6a              ??         6Ah    j
       1000:03dc ff              ??         FFh
       1000:03dd 50              ??         50h    P
       1000:03de ff              ??         FFh
       1000:03df 15              ??         15h
       1000:03e0 a8              ??         A8h
       1000:03e1 d0              ??         D0h
       1000:03e2 00              ??         00h
       1000:03e3 10              ??         10h
       1000:03e4 5e              ??         5Eh    ^
       1000:03e5 c3              ??         C3h
       1000:03e6 90              ??         90h
       1000:03e7 90              ??         90h
       1000:03e8 90              ??         90h
       1000:03e9 90              ??         90h
       1000:03ea 90              ??         90h
       1000:03eb 90              ??         90h
       1000:03ec 90              ??         90h
       1000:03ed 90              ??         90h
       1000:03ee 90              ??         90h
       1000:03ef 90              ??         90h
       1000:03f0 55              ??         55h    U
       1000:03f1 8b              ??         8Bh
       1000:03f2 2d              ??         2Dh    -
       1000:03f3 94              ??         94h
       1000:03f4 d0              ??         D0h
       1000:03f5 00              ??         00h
       1000:03f6 10              ??         10h
       1000:03f7 56              ??         56h    V
       1000:03f8 57              ??         57h    W
       1000:03f9 6a              ??         6Ah    j
       1000:03fa 04              ??         04h
       1000:03fb 68              ??         68h    h
       1000:03fc 00              ??         00h
       1000:03fd 10              ??         10h
       1000:03fe 00              ??         00h
       1000:03ff 00              ??         00h
       1000:0400 68              ??         68h    h
       1000:0401 00              ??         00h
       1000:0402 01              ??         01h
       1000:0403 00              ??         00h
       1000:0404 00              ??         00h
       1000:0405 6a              ??         6Ah    j
       1000:0406 00              ??         00h
       1000:0407 ff              ??         FFh
       1000:0408 d5              ??         D5h
       1000:0409 8b              ??         8Bh
       1000:040a f0              ??         F0h
       1000:040b 6a              ??         6Ah    j
       1000:040c 04              ??         04h
       1000:040d b9              ??         B9h
       1000:040e 40              ??         40h    @
       1000:040f 00              ??         00h
       1000:0410 00              ??         00h
       1000:0411 00              ??         00h
       1000:0412 33              ??         33h    3
       1000:0413 c0              ??         C0h
       1000:0414 8b              ??         8Bh
       1000:0415 fe              ??         FEh
       1000:0416 68              ??         68h    h
       1000:0417 00              ??         00h
       1000:0418 10              ??         10h
       1000:0419 00              ??         00h
       1000:041a 00              ??         00h
       1000:041b 6a              ??         6Ah    j
       1000:041c 0c              ??         0Ch
       1000:041d 50              ??         50h    P
       1000:041e f3              ??         F3h
       1000:041f ab              ??         ABh
       1000:0420 ff              ??         FFh
       1000:0421 d5              ??         D5h
       1000:0422 8b              ??         8Bh
       1000:0423 d0              ??         D0h
       1000:0424 33              ??         33h    3
       1000:0425 c9              ??         C9h
       1000:0426 56              ??         56h    V
       1000:0427 89              ??         89h
       1000:0428 0a              ??         0Ah
       1000:0429 89              ??         89h
       1000:042a 4a              ??         4Ah    J
       1000:042b 04              ??         04h
       1000:042c 89              ??         89h
       1000:042d 4a              ??         4Ah    J
       1000:042e 08              ??         08h
       1000:042f 8b              ??         8Bh
       1000:0430 4c              ??         4Ch    L
       1000:0431 24              ??         24h    $
       1000:0432 1c              ??         1Ch
       1000:0433 33              ??         33h    3
       1000:0434 d2              ??         D2h
       1000:0435 88              ??         88h
       1000:0436 48              ??         48h    H
       1000:0437 0b              ??         0Bh
       1000:0438 8a              ??         8Ah
       1000:0439 4c              ??         4Ch    L
       1000:043a 24              ??         24h    $
       1000:043b 14              ??         14h
       1000:043c 8a              ??         8Ah
       1000:043d d5              ??         D5h
       1000:043e 88              ??         88h
       1000:043f 50              ??         50h    P
       1000:0440 0a              ??         0Ah
       1000:0441 8a              ??         8Ah
       1000:0442 54              ??         54h    T
       1000:0443 24              ??         24h    $
       1000:0444 18              ??         18h
       1000:0445 c6              ??         C6h
       1000:0446 40              ??         40h    @
       1000:0447 03              ??         03h
       1000:0448 08              ??         08h
       1000:0449 c6              ??         C6h
       1000:044a 06              ??         06h
       1000:044b 02              ??         02h
       1000:044c 88              ??         88h
       1000:044d 4e              ??         4Eh    N
       1000:044e 02              ??         02h
       1000:044f c6              ??         C6h
                             //
                             // HEADER 
                             // HEADER::00000000-HEADER::0000003f
                             //
             assume CS = <UNKNOWN>
             assume DF = <UNKNOWN>
     R::00000000 4d 5a 90        OLD_IMAG                                                    Magic number
                 00 03 00 
                 00 00 04 
     R::0000001c 00              ??         00h
     R::0000001d 00              ??         00h
     R::0000001e 00              ??         00h
     R::0000001f 00              ??         00h
     R::00000020 00              ??         00h
     R::00000021 00              ??         00h
     R::00000022 00              ??         00h
     R::00000023 00              ??         00h
     R::00000024 00              ??         00h
     R::00000025 00              ??         00h
     R::00000026 00              ??         00h
     R::00000027 00              ??         00h
     R::00000028 00              ??         00h
     R::00000029 00              ??         00h
     R::0000002a 00              ??         00h
     R::0000002b 00              ??         00h
     R::0000002c 00              ??         00h
     R::0000002d 00              ??         00h
     R::0000002e 00              ??         00h
     R::0000002f 00              ??         00h
     R::00000030 00              ??         00h
     R::00000031 00              ??         00h
     R::00000032 00              ??         00h
     R::00000033 00              ??         00h
     R::00000034 00              ??         00h
     R::00000035 00              ??         00h
     R::00000036 00              ??         00h
     R::00000037 00              ??         00h
     R::00000038 00              ??         00h
     R::00000039 00              ??         00h
     R::0000003a 00              ??         00h
     R::0000003b 00              ??         00h
     R::0000003c b0              ??         B0h
     R::0000003d 00              ??         00h
     R::0000003e 00              ??         00h
     R::0000003f 00              ??         00h
